target datalayout = "e-m:e-p270:32:32-p271:32:32-p272:64:64-i64:64-i128:128-f80:128-n8:16:32:64-S128"
target triple = "x86_64-pc-linux-gnu"

%struct.flag = type { ptr, ptr, i64, i64 }
%struct.archive_entry = type { ptr, ptr, i32, %struct.aest, i32, %struct.archive_mstring, i64, i64, %struct.archive_mstring, %struct.archive_mstring, %struct.archive_mstring, %struct.archive_mstring, %struct.archive_mstring, i8, ptr, i64, %struct.ae_digest, %struct.archive_acl, ptr, ptr, ptr, ptr, ptr, [12 x i8], i32 }
%struct.aest = type { i64, i32, i64, i32, i64, i32, i64, i32, i64, i64, i32, i64, i64, i32, i64, i64, i64, i32, i64, i64, i64 }
%struct.archive_mstring = type { %struct.archive_string, %struct.archive_string, %struct.archive_wstring, %struct.archive_string, i32 }
%struct.archive_wstring = type { ptr, i64, i64 }
%struct.archive_string = type { ptr, i64, i64 }
%struct.ae_digest = type { [16 x i8], [20 x i8], [20 x i8], [32 x i8], [48 x i8], [64 x i8] }
%struct.archive_acl = type { i32, ptr, ptr, i32, ptr, ptr, i32 }

; Function Attrs: nounwind uwtable
define internal ptr @ae_strtofflags(ptr noundef %0, i64 noundef %1, ptr noundef %2, ptr noundef %3) #0 {
  %5 = alloca ptr, align 8
  %6 = alloca i64, align 8
  %7 = alloca ptr, align 8
  %8 = alloca ptr, align 8
  %9 = alloca ptr, align 8
  %10 = alloca ptr, align 8
  %11 = alloca ptr, align 8
  %12 = alloca i64, align 8
  %13 = alloca i64, align 8
  %14 = alloca ptr, align 8
  %15 = alloca i64, align 8
  %16 = alloca i64, align 8
  %17 = alloca i32, align 4
  store ptr %0, ptr %5, align 8, !tbaa !67
  store i64 %1, ptr %6, align 8, !tbaa !27
  store ptr %2, ptr %7, align 8, !tbaa !54
  store ptr %3, ptr %8, align 8, !tbaa !54
  call void @llvm.lifetime.start.p0(i64 8, ptr %9) #13
  call void @llvm.lifetime.start.p0(i64 8, ptr %10) #13
  call void @llvm.lifetime.start.p0(i64 8, ptr %11) #13
  call void @llvm.lifetime.start.p0(i64 8, ptr %12) #13
  call void @llvm.lifetime.start.p0(i64 8, ptr %13) #13
  call void @llvm.lifetime.start.p0(i64 8, ptr %14) #13
  store i64 0, ptr %13, align 8, !tbaa !27
  store i64 0, ptr %12, align 8, !tbaa !27
  %18 = load ptr, ptr %5, align 8, !tbaa !67
  store ptr %18, ptr %9, align 8, !tbaa !67
  store ptr null, ptr %14, align 8, !tbaa !67
  br label %19

19:                                               ; preds = %41, %4
  %20 = load i64, ptr %6, align 8, !tbaa !27
  %21 = icmp ugt i64 %20, 0
  br i1 %21, label %22, label %39

22:                                               ; preds = %19
  %23 = load ptr, ptr %9, align 8, !tbaa !67
  %24 = load i8, ptr %23, align 1, !tbaa !75
  %25 = sext i8 %24 to i32
  %26 = icmp eq i32 %25, 9
  br i1 %26, label %37, label %27

27:                                               ; preds = %22
  %28 = load ptr, ptr %9, align 8, !tbaa !67
  %29 = load i8, ptr %28, align 1, !tbaa !75
  %30 = sext i8 %29 to i32
  %31 = icmp eq i32 %30, 32
  br i1 %31, label %37, label %32

32:                                               ; preds = %27
  %33 = load ptr, ptr %9, align 8, !tbaa !67
  %34 = load i8, ptr %33, align 1, !tbaa !75
  %35 = sext i8 %34 to i32
  %36 = icmp eq i32 %35, 44
  br label %37

37:                                               ; preds = %32, %27, %22
  %38 = phi i1 [ true, %27 ], [ true, %22 ], [ %36, %32 ]
  br label %39

39:                                               ; preds = %37, %19
  %40 = phi i1 [ false, %19 ], [ %38, %37 ]
  br i1 %40, label %41, label %46

41:                                               ; preds = %39
  %42 = load ptr, ptr %9, align 8, !tbaa !67
  %43 = getelementptr inbounds nuw i8, ptr %42, i32 1
  store ptr %43, ptr %9, align 8, !tbaa !67
  %44 = load i64, ptr %6, align 8, !tbaa !27
  %45 = add i64 %44, -1
  store i64 %45, ptr %6, align 8, !tbaa !27
  br label %19, !llvm.loop !95

46:                                               ; preds = %39
  br label %47

47:                                               ; preds = %187, %46
  %48 = load i64, ptr %6, align 8, !tbaa !27
  %49 = icmp ugt i64 %48, 0
  br i1 %49, label %50, label %188

50:                                               ; preds = %47
  call void @llvm.lifetime.start.p0(i64 8, ptr %15) #13
  %51 = load ptr, ptr %9, align 8, !tbaa !67
  store ptr %51, ptr %10, align 8, !tbaa !67
  br label %52

52:                                               ; preds = %72, %50
  %53 = load i64, ptr %6, align 8, !tbaa !27
  %54 = icmp ugt i64 %53, 0
  br i1 %54, label %55, label %70

55:                                               ; preds = %52
  %56 = load ptr, ptr %10, align 8, !tbaa !67
  %57 = load i8, ptr %56, align 1, !tbaa !75
  %58 = sext i8 %57 to i32
  %59 = icmp ne i32 %58, 9
  br i1 %59, label %60, label %70

60:                                               ; preds = %55
  %61 = load ptr, ptr %10, align 8, !tbaa !67
  %62 = load i8, ptr %61, align 1, !tbaa !75
  %63 = sext i8 %62 to i32
  %64 = icmp ne i32 %63, 32
  br i1 %64, label %65, label %70

65:                                               ; preds = %60
  %66 = load ptr, ptr %10, align 8, !tbaa !67
  %67 = load i8, ptr %66, align 1, !tbaa !75
  %68 = sext i8 %67 to i32
  %69 = icmp ne i32 %68, 44
  br label %70

70:                                               ; preds = %65, %60, %55, %52
  %71 = phi i1 [ false, %60 ], [ false, %55 ], [ false, %52 ], [ %69, %65 ]
  br i1 %71, label %72, label %77

72:                                               ; preds = %70
  %73 = load ptr, ptr %10, align 8, !tbaa !67
  %74 = getelementptr inbounds nuw i8, ptr %73, i32 1
  store ptr %74, ptr %10, align 8, !tbaa !67
  %75 = load i64, ptr %6, align 8, !tbaa !27
  %76 = add i64 %75, -1
  store i64 %76, ptr %6, align 8, !tbaa !27
  br label %52, !llvm.loop !96

77:                                               ; preds = %70
  %78 = load ptr, ptr %10, align 8, !tbaa !67
  %79 = load ptr, ptr %9, align 8, !tbaa !67
  %80 = ptrtoint ptr %78 to i64
  %81 = ptrtoint ptr %79 to i64
  %82 = sub i64 %80, %81
  store i64 %82, ptr %15, align 8, !tbaa !27
  store ptr @fileflags, ptr %11, align 8, !tbaa !68
  br label %83

83:                                               ; preds = %145, %77
  %84 = load ptr, ptr %11, align 8, !tbaa !68
  %85 = getelementptr inbounds nuw %struct.flag, ptr %84, i32 0, i32 0
  %86 = load ptr, ptr %85, align 8, !tbaa !70
  %87 = icmp ne ptr %86, null
  br i1 %87, label %88, label %148

88:                                               ; preds = %83
  call void @llvm.lifetime.start.p0(i64 8, ptr %16) #13
  %89 = load ptr, ptr %11, align 8, !tbaa !68
  %90 = getelementptr inbounds nuw %struct.flag, ptr %89, i32 0, i32 0
  %91 = load ptr, ptr %90, align 8, !tbaa !70
  %92 = call i64 @strlen(ptr noundef %91) #19
  store i64 %92, ptr %16, align 8, !tbaa !27
  %93 = load i64, ptr %15, align 8, !tbaa !27
  %94 = load i64, ptr %16, align 8, !tbaa !27
  %95 = icmp eq i64 %93, %94
  br i1 %95, label %96, label %115

96:                                               ; preds = %88
  %97 = load ptr, ptr %9, align 8, !tbaa !67
  %98 = load ptr, ptr %11, align 8, !tbaa !68
  %99 = getelementptr inbounds nuw %struct.flag, ptr %98, i32 0, i32 0
  %100 = load ptr, ptr %99, align 8, !tbaa !70
  %101 = load i64, ptr %15, align 8, !tbaa !27
  %102 = call i32 @memcmp(ptr noundef %97, ptr noundef %100, i64 noundef %101) #19
  %103 = icmp eq i32 %102, 0
  br i1 %103, label %104, label %115

104:                                              ; preds = %96
  %105 = load ptr, ptr %11, align 8, !tbaa !68
  %106 = getelementptr inbounds nuw %struct.flag, ptr %105, i32 0, i32 2
  %107 = load i64, ptr %106, align 8, !tbaa !72
  %108 = load i64, ptr %13, align 8, !tbaa !27
  %109 = or i64 %108, %107
  store i64 %109, ptr %13, align 8, !tbaa !27
  %110 = load ptr, ptr %11, align 8, !tbaa !68
  %111 = getelementptr inbounds nuw %struct.flag, ptr %110, i32 0, i32 3
  %112 = load i64, ptr %111, align 8, !tbaa !73
  %113 = load i64, ptr %12, align 8, !tbaa !27
  %114 = or i64 %113, %112
  store i64 %114, ptr %12, align 8, !tbaa !27
  store i32 8, ptr %17, align 4
  br label %142

115:                                              ; preds = %96, %88
  %116 = load i64, ptr %15, align 8, !tbaa !27
  %117 = load i64, ptr %16, align 8, !tbaa !27
  %118 = sub i64 %117, 2
  %119 = icmp eq i64 %116, %118
  br i1 %119, label %120, label %140

120:                                              ; preds = %115
  %121 = load ptr, ptr %9, align 8, !tbaa !67
  %122 = load ptr, ptr %11, align 8, !tbaa !68
  %123 = getelementptr inbounds nuw %struct.flag, ptr %122, i32 0, i32 0
  %124 = load ptr, ptr %123, align 8, !tbaa !70
  %125 = getelementptr inbounds i8, ptr %124, i64 2
  %126 = load i64, ptr %15, align 8, !tbaa !27
  %127 = call i32 @memcmp(ptr noundef %121, ptr noundef %125, i64 noundef %126) #19
  %128 = icmp eq i32 %127, 0
  br i1 %128, label %129, label %140

129:                                              ; preds = %120
  %130 = load ptr, ptr %11, align 8, !tbaa !68
  %131 = getelementptr inbounds nuw %struct.flag, ptr %130, i32 0, i32 2
  %132 = load i64, ptr %131, align 8, !tbaa !72
  %133 = load i64, ptr %12, align 8, !tbaa !27
  %134 = or i64 %133, %132
  store i64 %134, ptr %12, align 8, !tbaa !27
  %135 = load ptr, ptr %11, align 8, !tbaa !68
  %136 = getelementptr inbounds nuw %struct.flag, ptr %135, i32 0, i32 3
  %137 = load i64, ptr %136, align 8, !tbaa !73
  %138 = load i64, ptr %13, align 8, !tbaa !27
  %139 = or i64 %138, %137
  store i64 %139, ptr %13, align 8, !tbaa !27
  store i32 8, ptr %17, align 4
  br label %142

140:                                              ; preds = %120, %115
  br label %141

141:                                              ; preds = %140
  store i32 0, ptr %17, align 4
  br label %142

142:                                              ; preds = %141, %129, %104
  call void @llvm.lifetime.end.p0(i64 8, ptr %16) #13
  %143 = load i32, ptr %17, align 4
  switch i32 %143, label %202 [
    i32 0, label %144
    i32 8, label %148
  ]

144:                                              ; preds = %142
  br label %145

145:                                              ; preds = %144
  %146 = load ptr, ptr %11, align 8, !tbaa !68
  %147 = getelementptr inbounds nuw %struct.flag, ptr %146, i32 1
  store ptr %147, ptr %11, align 8, !tbaa !68
  br label %83, !llvm.loop !97

148:                                              ; preds = %142, %83
  %149 = load ptr, ptr %11, align 8, !tbaa !68
  %150 = getelementptr inbounds nuw %struct.flag, ptr %149, i32 0, i32 0
  %151 = load ptr, ptr %150, align 8, !tbaa !70
  %152 = icmp eq ptr %151, null
  br i1 %152, label %153, label %158

153:                                              ; preds = %148
  %154 = load ptr, ptr %14, align 8, !tbaa !67
  %155 = icmp eq ptr %154, null
  br i1 %155, label %156, label %158

156:                                              ; preds = %153
  %157 = load ptr, ptr %9, align 8, !tbaa !67
  store ptr %157, ptr %14, align 8, !tbaa !67
  br label %158

158:                                              ; preds = %156, %153, %148
  %159 = load ptr, ptr %10, align 8, !tbaa !67
  store ptr %159, ptr %9, align 8, !tbaa !67
  br label %160

160:                                              ; preds = %182, %158
  %161 = load i64, ptr %6, align 8, !tbaa !27
  %162 = icmp ugt i64 %161, 0
  br i1 %162, label %163, label %180

163:                                              ; preds = %160
  %164 = load ptr, ptr %9, align 8, !tbaa !67
  %165 = load i8, ptr %164, align 1, !tbaa !75
  %166 = sext i8 %165 to i32
  %167 = icmp eq i32 %166, 9
  br i1 %167, label %178, label %168

168:                                              ; preds = %163
  %169 = load ptr, ptr %9, align 8, !tbaa !67
  %170 = load i8, ptr %169, align 1, !tbaa !75
  %171 = sext i8 %170 to i32
  %172 = icmp eq i32 %171, 32
  br i1 %172, label %178, label %173

173:                                              ; preds = %168
  %174 = load ptr, ptr %9, align 8, !tbaa !67
  %175 = load i8, ptr %174, align 1, !tbaa !75
  %176 = sext i8 %175 to i32
  %177 = icmp eq i32 %176, 44
  br label %178

178:                                              ; preds = %173, %168, %163
  %179 = phi i1 [ true, %168 ], [ true, %163 ], [ %177, %173 ]
  br label %180

180:                                              ; preds = %178, %160
  %181 = phi i1 [ false, %160 ], [ %179, %178 ]
  br i1 %181, label %182, label %187

182:                                              ; preds = %180
  %183 = load ptr, ptr %9, align 8, !tbaa !67
  %184 = getelementptr inbounds nuw i8, ptr %183, i32 1
  store ptr %184, ptr %9, align 8, !tbaa !67
  %185 = load i64, ptr %6, align 8, !tbaa !27
  %186 = add i64 %185, -1
  store i64 %186, ptr %6, align 8, !tbaa !27
  br label %160, !llvm.loop !98

187:                                              ; preds = %180
  call void @llvm.lifetime.end.p0(i64 8, ptr %15) #13
  br label %47, !llvm.loop !99

188:                                              ; preds = %47
  %189 = load ptr, ptr %7, align 8, !tbaa !54
  %190 = icmp ne ptr %189, null
  br i1 %190, label %191, label %194

191:                                              ; preds = %188
  %192 = load i64, ptr %12, align 8, !tbaa !27
  %193 = load ptr, ptr %7, align 8, !tbaa !54
  store i64 %192, ptr %193, align 8, !tbaa !27
  br label %194

194:                                              ; preds = %191, %188
  %195 = load ptr, ptr %8, align 8, !tbaa !54
  %196 = icmp ne ptr %195, null
  br i1 %196, label %197, label %200

197:                                              ; preds = %194
  %198 = load i64, ptr %13, align 8, !tbaa !27
  %199 = load ptr, ptr %8, align 8, !tbaa !54
  store i64 %198, ptr %199, align 8, !tbaa !27
  br label %200

200:                                              ; preds = %197, %194
  %201 = load ptr, ptr %14, align 8, !tbaa !67
  store i32 1, ptr %17, align 4
  call void @llvm.lifetime.end.p0(i64 8, ptr %14) #13
  call void @llvm.lifetime.end.p0(i64 8, ptr %13) #13
  call void @llvm.lifetime.end.p0(i64 8, ptr %12) #13
  call void @llvm.lifetime.end.p0(i64 8, ptr %11) #13
  call void @llvm.lifetime.end.p0(i64 8, ptr %10) #13
  call void @llvm.lifetime.end.p0(i64 8, ptr %9) #13
  ret ptr %201

202:                                              ; preds = %142
  unreachable
}

; Function Attrs: nounwind uwtable
define dso_local ptr @archive_entry_copy_fflags_text_len(ptr noundef %0, ptr noundef %1, i64 noundef %2) #0 {
  %4 = alloca ptr, align 8
  %5 = alloca ptr, align 8
  %6 = alloca i64, align 8
  store ptr %0, ptr %4, align 8, !tbaa !4
  store ptr %1, ptr %5, align 8, !tbaa !67
  store i64 %2, ptr %6, align 8, !tbaa !27
  %7 = load ptr, ptr %4, align 8, !tbaa !4
  %8 = getelementptr inbounds nuw %struct.archive_entry, ptr %7, i32 0, i32 5
  %9 = load ptr, ptr %5, align 8, !tbaa !67
  %10 = load i64, ptr %6, align 8, !tbaa !27
  %11 = call i32 @archive_mstring_copy_mbs_len(ptr noundef %8, ptr noundef %9, i64 noundef %10)
  %12 = load ptr, ptr %5, align 8, !tbaa !67
  %13 = load i64, ptr %6, align 8, !tbaa !27
  %14 = load ptr, ptr %4, align 8, !tbaa !4
  %15 = getelementptr inbounds nuw %struct.archive_entry, ptr %14, i32 0, i32 6
  %16 = load ptr, ptr %4, align 8, !tbaa !4
  %17 = getelementptr inbounds nuw %struct.archive_entry, ptr %16, i32 0, i32 7
  %18 = call ptr @ae_strtofflags(ptr noundef %12, i64 noundef %13, ptr noundef %15, ptr noundef %17)
  ret ptr %18
}