; Function Attrs: nounwind uwtable
define dso_local ptr @archive_entry_copy_fflags_text_len(ptr noundef %0, ptr noundef %1, i64 noundef %2) local_unnamed_addr #0 {
  %4 = getelementptr inbounds nuw i8, ptr %0, i64 200
  %5 = tail call i32 @archive_mstring_copy_mbs_len(ptr noundef nonnull %4, ptr noundef %1, i64 noundef %2) #21
  %.not109.i = icmp eq i64 %2, 0
  br i1 %.not109.i, label %ae_strtofflags.exit, label %.lr.ph.i

.lr.ph.i:                                         ; preds = %3, %.critedge2.i
  %.064111.i = phi i64 [ %8, %.critedge2.i ], [ %2, %3 ]
  %.065110.i = phi ptr [ %7, %.critedge2.i ], [ %1, %3 ]
  %6 = load i8, ptr %.065110.i, align 1, !tbaa !63
  switch i8 %6, label %.preheader.i [
    i8 9, label %.critedge2.i
    i8 32, label %.critedge2.i
    i8 44, label %.critedge2.i
  ]

.critedge2.i:                                     ; preds = %.lr.ph.i, %.lr.ph.i, %.lr.ph.i
  %7 = getelementptr inbounds nuw i8, ptr %.065110.i, i64 1
  %8 = add i64 %.064111.i, -1
  %.not.i = icmp eq i64 %8, 0
  br i1 %.not.i, label %ae_strtofflags.exit, label %.lr.ph.i, !llvm.loop !79

.preheader.i:                                     ; preds = %.lr.ph123.i, %.lr.ph.i
  %.1134.i = phi i64 [ %.064111.i, %.lr.ph.i ], [ %.3122.i, %.lr.ph123.i ]
  %.166133.i = phi ptr [ %.065110.i, %.lr.ph.i ], [ %.267121.i, %.lr.ph123.i ]
  %.068132.i = phi ptr [ null, %.lr.ph.i ], [ %spec.select.i, %.lr.ph123.i ]
  %.070131.i = phi i64 [ 0, %.lr.ph.i ], [ %.272.i, %.lr.ph123.i ]
  %.074130.i = phi i64 [ 0, %.lr.ph.i ], [ %.276.i, %.lr.ph123.i ]
  %scevgep140.i = getelementptr i8, ptr %.166133.i, i64 %.1134.i
  br label %9

9:                                                ; preds = %11, %.preheader.i
  %.2117.i = phi i64 [ %.1134.i, %.preheader.i ], [ %13, %11 ]
  %.079116.i = phi ptr [ %.166133.i, %.preheader.i ], [ %12, %11 ]
  %10 = load i8, ptr %.079116.i, align 1, !tbaa !63
  switch i8 %10, label %11 [
    i8 9, label %.critedge4.i
    i8 32, label %.critedge4.i
    i8 44, label %.critedge4.i
  ]

11:                                               ; preds = %9
  %12 = getelementptr inbounds nuw i8, ptr %.079116.i, i64 1
  %13 = add i64 %.2117.i, -1
  %.not91.i = icmp eq i64 %13, 0
  br i1 %.not91.i, label %.critedge4.i, label %9, !llvm.loop !80

.critedge4.i:                                     ; preds = %11, %9, %9, %9
  %.079.lcssa.i = phi ptr [ %.079116.i, %9 ], [ %.079116.i, %9 ], [ %.079116.i, %9 ], [ %scevgep140.i, %11 ]
  %.2.lcssa.i = phi i64 [ %.2117.i, %9 ], [ %.2117.i, %9 ], [ %.2117.i, %9 ], [ 0, %11 ]
  %14 = ptrtoint ptr %.079.lcssa.i to i64
  %15 = ptrtoint ptr %.166133.i to i64
  %16 = sub i64 %14, %15
  br label %17

17:                                               ; preds = %43, %.critedge4.i
  %18 = phi ptr [ @.str.1, %.critedge4.i ], [ %45, %43 ]
  %.078118.i = phi ptr [ @fileflags, %.critedge4.i ], [ %44, %43 ]
  %19 = tail call i64 @strlen(ptr noundef nonnull dereferenceable(1) %18) #26
  %20 = icmp eq i64 %16, %19
  br i1 %20, label %21, label %30

21:                                               ; preds = %17
  %bcmp.i = tail call i32 @bcmp(ptr nonnull %.166133.i, ptr nonnull %18, i64 %16)
  %22 = icmp eq i32 %bcmp.i, 0
  br i1 %22, label %23, label %30

23:                                               ; preds = %21
  %24 = getelementptr inbounds nuw i8, ptr %.078118.i, i64 16
  %25 = load i64, ptr %24, align 8, !tbaa !58
  %26 = or i64 %25, %.070131.i
  %27 = getelementptr inbounds nuw i8, ptr %.078118.i, i64 24
  %28 = load i64, ptr %27, align 8, !tbaa !60
  %29 = or i64 %28, %.074130.i
  br label %.loopexit.i

30:                                               ; preds = %21, %17
  %31 = add i64 %19, -2
  %32 = icmp eq i64 %16, %31
  br i1 %32, label %33, label %43

33:                                               ; preds = %30
  %34 = getelementptr inbounds nuw i8, ptr %18, i64 2
  %bcmp96.i = tail call i32 @bcmp(ptr nonnull %.166133.i, ptr nonnull %34, i64 %16)
  %35 = icmp eq i32 %bcmp96.i, 0
  br i1 %35, label %36, label %43

36:                                               ; preds = %33
  %37 = getelementptr inbounds nuw i8, ptr %.078118.i, i64 16
  %38 = load i64, ptr %37, align 8, !tbaa !58
  %39 = or i64 %38, %.074130.i
  %40 = getelementptr inbounds nuw i8, ptr %.078118.i, i64 24
  %41 = load i64, ptr %40, align 8, !tbaa !60
  %42 = or i64 %41, %.070131.i
  br label %.loopexit.i

43:                                               ; preds = %33, %30
  %44 = getelementptr inbounds nuw i8, ptr %.078118.i, i64 32
  %45 = load ptr, ptr %44, align 8, !tbaa !61
  %.not95.i = icmp eq ptr %45, null
  br i1 %.not95.i, label %.loopexit.i, label %17, !llvm.loop !81

.loopexit.i:                                      ; preds = %43, %36, %23
  %.not95106.i = phi i1 [ false, %23 ], [ false, %36 ], [ true, %43 ]
  %.276.i = phi i64 [ %29, %23 ], [ %39, %36 ], [ %.074130.i, %43 ]
  %.272.i = phi i64 [ %26, %23 ], [ %42, %36 ], [ %.070131.i, %43 ]
  %46 = icmp eq ptr %.068132.i, null
  %or.cond.i = select i1 %.not95106.i, i1 %46, i1 false
  %spec.select.i = select i1 %or.cond.i, ptr %.166133.i, ptr %.068132.i
  %.not97120.i = icmp eq i64 %.2.lcssa.i, 0
  br i1 %.not97120.i, label %ae_strtofflags.exit, label %.lr.ph123.i

.lr.ph123.i:                                      ; preds = %.loopexit.i, %.critedge9.i
  %.3122.i = phi i64 [ %49, %.critedge9.i ], [ %.2.lcssa.i, %.loopexit.i ]
  %.267121.i = phi ptr [ %48, %.critedge9.i ], [ %.079.lcssa.i, %.loopexit.i ]
  %47 = load i8, ptr %.267121.i, align 1, !tbaa !63
  switch i8 %47, label %.preheader.i [
    i8 9, label %.critedge9.i
    i8 32, label %.critedge9.i
    i8 44, label %.critedge9.i
  ], !llvm.loop !82

.critedge9.i:                                     ; preds = %.lr.ph123.i, %.lr.ph123.i, %.lr.ph123.i
  %48 = getelementptr inbounds nuw i8, ptr %.267121.i, i64 1
  %49 = add i64 %.3122.i, -1
  %.not97.i = icmp eq i64 %49, 0
  br i1 %.not97.i, label %ae_strtofflags.exit, label %.lr.ph123.i, !llvm.loop !83

ae_strtofflags.exit:                              ; preds = %.critedge2.i, %.loopexit.i, %.critedge9.i, %3
  %.074.lcssa.i = phi i64 [ 0, %3 ], [ %.276.i, %.critedge9.i ], [ %.276.i, %.loopexit.i ], [ 0, %.critedge2.i ]
  %.070.lcssa.i = phi i64 [ 0, %3 ], [ %.272.i, %.critedge9.i ], [ %.272.i, %.loopexit.i ], [ 0, %.critedge2.i ]
  %.068.lcssa.i = phi ptr [ null, %3 ], [ %spec.select.i, %.critedge9.i ], [ %spec.select.i, %.loopexit.i ], [ null, %.critedge2.i ]
  %50 = getelementptr inbounds nuw i8, ptr %0, i64 312
  %51 = getelementptr inbounds nuw i8, ptr %0, i64 304
  store i64 %.074.lcssa.i, ptr %51, align 8, !tbaa !27
  store i64 %.070.lcssa.i, ptr %50, align 8, !tbaa !27
  ret ptr %.068.lcssa.i
}